target datalayout = "e-m:e-p270:32:32-p271:32:32-p272:64:64-i64:64-i128:128-f80:128-n8:16:32:64-S128"
target triple = "x86_64-unknown-linux-gnu"

%struct.TPMPassthruState = type { %struct.TPMBackend, ptr, ptr, i32, i8, i8, i32, i32, i64 }
%struct.TPMBackend = type { %struct.Object, ptr, i8, i8, ptr, ptr, %struct.anon }
%struct.Object = type { ptr, ptr, ptr, i32, ptr }
%struct.anon = type { ptr, ptr }

@.str = private unnamed_addr constant [16 x i8] c"tpm-passthrough\00", align 1
@.str.1 = private unnamed_addr constant [12 x i8] c"tpm-backend\00", align 1
@.str.2 = private unnamed_addr constant [39 x i8] c"../qemu/backends/tpm/tpm_passthrough.c\00", align 1
@__func__.TPM_PASSTHROUGH = private unnamed_addr constant [16 x i8] c"TPM_PASSTHROUGH\00", align 1
@.str.6 = private unnamed_addr constant [107 x i8] c"/home/dtcxzyw/WorkSpace/Projects/compilers/llvm-opt-benchmark/bench/qemu/qemu/include/sysemu/tpm_backend.h\00", align 1
@__func__.TPM_BACKEND = private unnamed_addr constant [12 x i8] c"TPM_BACKEND\00", align 1

; Function Attrs: nounwind sspstrong uwtable
define internal ptr @TPM_BACKEND(ptr noundef %obj) #0 {
entry:
  %obj.addr = alloca ptr, align 8
  store ptr %obj, ptr %obj.addr, align 8
  %0 = load ptr, ptr %obj.addr, align 8
  %call = call ptr @object_dynamic_cast_assert(ptr noundef %0, ptr noundef @.str.1, ptr noundef @.str.6, i32 noundef 25, ptr noundef @__func__.TPM_BACKEND)
  ret ptr %call
}

; Function Attrs: nounwind sspstrong uwtable
define internal ptr @TPM_PASSTHROUGH(ptr noundef %obj) #0 {
entry:
  %obj.addr = alloca ptr, align 8
  store ptr %obj, ptr %obj.addr, align 8
  %0 = load ptr, ptr %obj.addr, align 8
  %call = call ptr @object_dynamic_cast_assert(ptr noundef %0, ptr noundef @.str, ptr noundef @.str.2, i32 noundef 38, ptr noundef @__func__.TPM_PASSTHROUGH)
  ret ptr %call
}

; Function Attrs: nounwind sspstrong uwtable
define internal void @tpm_passthrough_inst_finalize(ptr noundef %obj) #0 {
entry:
  %obj.addr = alloca ptr, align 8
  %tpm_pt = alloca ptr, align 8
  store ptr %obj, ptr %obj.addr, align 8
  %0 = load ptr, ptr %obj.addr, align 8
  %call = call ptr @TPM_PASSTHROUGH(ptr noundef %0)
  store ptr %call, ptr %tpm_pt, align 8
  %1 = load ptr, ptr %obj.addr, align 8
  %call1 = call ptr @TPM_BACKEND(ptr noundef %1)
  call void @tpm_passthrough_cancel_cmd(ptr noundef %call1)
  %2 = load ptr, ptr %tpm_pt, align 8
  %tpm_fd = getelementptr inbounds %struct.TPMPassthruState, ptr %2, i32 0, i32 3
  %3 = load i32, ptr %tpm_fd, align 8
  %cmp = icmp sge i32 %3, 0
  br i1 %cmp, label %if.then, label %if.end

if.then:                                          ; preds = %entry
  %4 = load ptr, ptr %tpm_pt, align 8
  %tpm_fd2 = getelementptr inbounds %struct.TPMPassthruState, ptr %4, i32 0, i32 3
  %5 = load i32, ptr %tpm_fd2, align 8
  %call3 = call i32 @qemu_close(i32 noundef %5)
  br label %if.end

if.end:                                           ; preds = %if.then, %entry
  %6 = load ptr, ptr %tpm_pt, align 8
  %cancel_fd = getelementptr inbounds %struct.TPMPassthruState, ptr %6, i32 0, i32 6
  %7 = load i32, ptr %cancel_fd, align 8
  %cmp4 = icmp sge i32 %7, 0
  br i1 %cmp4, label %if.then5, label %if.end8

if.then5:                                         ; preds = %if.end
  %8 = load ptr, ptr %tpm_pt, align 8
  %cancel_fd6 = getelementptr inbounds %struct.TPMPassthruState, ptr %8, i32 0, i32 6
  %9 = load i32, ptr %cancel_fd6, align 8
  %call7 = call i32 @qemu_close(i32 noundef %9)
  br label %if.end8

if.end8:                                          ; preds = %if.then5, %if.end
  %10 = load ptr, ptr %tpm_pt, align 8
  %options = getelementptr inbounds %struct.TPMPassthruState, ptr %10, i32 0, i32 1
  %11 = load ptr, ptr %options, align 8
  call void @qapi_free_TPMPassthroughOptions(ptr noundef %11)
  ret void
}