; Function Attrs: nounwind sspstrong uwtable
define internal void @tpm_passthrough_inst_finalize(ptr noundef %obj) #0 {
entry:
  %call.i = tail call ptr @object_dynamic_cast_assert(ptr noundef %obj, ptr noundef nonnull @.str, ptr noundef nonnull @.str.2, i32 noundef 38, ptr noundef nonnull @__func__.TPM_PASSTHROUGH) #11
  %call.i7 = tail call ptr @object_dynamic_cast_assert(ptr noundef %obj, ptr noundef nonnull @.str.1, ptr noundef nonnull @.str.6, i32 noundef 25, ptr noundef nonnull @__func__.TPM_BACKEND) #11
  tail call void @tpm_passthrough_cancel_cmd(ptr noundef %call.i7)
  %tpm_fd = getelementptr inbounds nuw i8, ptr %call.i, i64 104
  %0 = load i32, ptr %tpm_fd, align 8
  %cmp = icmp sgt i32 %0, -1
  br i1 %cmp, label %if.then, label %if.end

if.then:                                          ; preds = %entry
  %call3 = tail call i32 @qemu_close(i32 noundef %0) #11
  br label %if.end

if.end:                                           ; preds = %if.then, %entry
  %cancel_fd = getelementptr inbounds nuw i8, ptr %call.i, i64 112
  %1 = load i32, ptr %cancel_fd, align 8
  %cmp4 = icmp sgt i32 %1, -1
  br i1 %cmp4, label %if.then5, label %if.end8

if.then5:                                         ; preds = %if.end
  %call7 = tail call i32 @qemu_close(i32 noundef %1) #11
  br label %if.end8

if.end8:                                          ; preds = %if.then5, %if.end
  %options = getelementptr inbounds nuw i8, ptr %call.i, i64 88
  %2 = load ptr, ptr %options, align 8
  tail call void @qapi_free_TPMPassthroughOptions(ptr noundef %2) #11
  ret void
}